; Function Attrs: null_pointer_is_valid sspstrong uwtable
define internal i32 @dissect_f1ap_GNB_CU_UE_F1AP_ID(ptr noundef %0, i32 noundef %1, ptr noundef %2, ptr noundef %3, i32 noundef %4) #0 {
  %6 = alloca i32, align 4
  call void @llvm.lifetime.start.p0(i64 4, ptr nonnull %6) #6
  %7 = call i32 @dissect_per_constrained_integer(ptr noundef %0, i32 noundef %1, ptr noundef %2, ptr noundef %3, i32 noundef %4, i32 noundef 0, i32 noundef -1, ptr noundef nonnull %6, i1 noundef zeroext false)
  %8 = getelementptr inbounds nuw i8, ptr %2, i64 16
  %9 = load ptr, ptr %8, align 8
  %10 = call ptr @wmem_file_scope()
  %11 = load i32, ptr @proto_f1ap, align 4
  %12 = call ptr @p_get_proto_data(ptr noundef %10, ptr noundef %9, i32 noundef %11, i32 noundef 0)
  %.not.i = icmp eq ptr %12, null
  br i1 %.not.i, label %13, label %f1ap_get_private_data.exit

13:                                               ; preds = %5
  %14 = call ptr @wmem_file_scope()
  %15 = call noalias dereferenceable_or_null(48) ptr @wmem_alloc0(ptr noundef %14, i64 noundef 48) #7
  %16 = getelementptr inbounds nuw i8, ptr %15, i64 28
  store i32 -1, ptr %16, align 4
  %17 = getelementptr inbounds nuw i8, ptr %15, i64 32
  store i32 1, ptr %17, align 8
  %18 = call ptr @wmem_file_scope()
  %19 = load i32, ptr @proto_f1ap, align 4
  call void @p_add_proto_data(ptr noundef %18, ptr noundef %9, i32 noundef %19, i32 noundef 0, ptr noundef %15)
  br label %f1ap_get_private_data.exit

f1ap_get_private_data.exit:                       ; preds = %5, %13
  %.0.i = phi ptr [ %12, %5 ], [ %15, %13 ]
  %20 = load i32, ptr %6, align 4
  %21 = getelementptr inbounds nuw i8, ptr %.0.i, i64 32
  store i32 %20, ptr %21, align 8
  call void @llvm.lifetime.end.p0(i64 4, ptr nonnull %6) #6
  ret i32 %7
}